target datalayout = "e-m:e-p270:32:32-p271:32:32-p272:64:64-i64:64-i128:128-f80:128-n8:16:32:64-S128"
target triple = "x86_64-pc-linux-gnu"

%struct.ident_t = type { i32, i32, i32, i32, ptr }
%"class.ncnn::ROIPooling" = type <{ %"class.ncnn::Layer", i32, i32, float, [4 x i8] }>
%"class.ncnn::Layer" = type { ptr, i8, i8, i8, i8, i8, i8, i8, i8, i8, i8, i8, i8, i8, i8, i8, i8, i8, i8, i8, i8, i32, ptr, i32, %"class.std::__cxx11::basic_string", %"class.std::__cxx11::basic_string", %"class.std::vector", %"class.std::vector", %"class.std::vector.3", %"class.std::vector.3" }
%"class.std::__cxx11::basic_string" = type { %"struct.std::__cxx11::basic_string<char>::_Alloc_hider", i64, %union.anon }
%"struct.std::__cxx11::basic_string<char>::_Alloc_hider" = type { ptr }
%union.anon = type { i64, [8 x i8] }
%"class.std::vector" = type { %"struct.std::_Vector_base" }
%"struct.std::_Vector_base" = type { %"struct.std::_Vector_base<int, std::allocator<int>>::_Vector_impl" }
%"struct.std::_Vector_base<int, std::allocator<int>>::_Vector_impl" = type { %"struct.std::_Vector_base<int, std::allocator<int>>::_Vector_impl_data" }
%"struct.std::_Vector_base<int, std::allocator<int>>::_Vector_impl_data" = type { ptr, ptr, ptr }
%"class.std::vector.3" = type { %"struct.std::_Vector_base.4" }
%"struct.std::_Vector_base.4" = type { %"struct.std::_Vector_base<ncnn::Mat, std::allocator<ncnn::Mat>>::_Vector_impl" }
%"struct.std::_Vector_base<ncnn::Mat, std::allocator<ncnn::Mat>>::_Vector_impl" = type { %"struct.std::_Vector_base<ncnn::Mat, std::allocator<ncnn::Mat>>::_Vector_impl_data" }
%"struct.std::_Vector_base<ncnn::Mat, std::allocator<ncnn::Mat>>::_Vector_impl_data" = type { ptr, ptr, ptr }
%"class.ncnn::Mat" = type { ptr, ptr, i64, i32, ptr, i32, i32, i32, i32, i32, i64 }
%"class.ncnn::Option" = type { i8, i32, ptr, ptr, i32, i8, i8, i8, i8, i8, i8, i8, i8, i8, i8, i8, i8, i8, i8, i8, i8, i8, i8, i8, i8, i32, i8, i8, i8, i8, i8, i8, i8, i8, i8, i8, i8, i8 }

@2 = private unnamed_addr constant %struct.ident_t { i32 0, i32 2, i32 0, i32 22, ptr @0 }, align 8

; Function Attrs: alwaysinline mustprogress nounwind uwtable
define linkonce_odr hidden noundef i64 @_ZNK4ncnn3Mat5totalEv(ptr noundef nonnull align 8 dereferenceable(72) %0) #7 comdat align 2 {
  %2 = alloca ptr, align 8
  store ptr %0, ptr %2, align 8, !tbaa !37
  %3 = load ptr, ptr %2, align 8
  %4 = getelementptr inbounds nuw %"class.ncnn::Mat", ptr %3, i32 0, i32 10
  %5 = load i64, ptr %4, align 8, !tbaa !66
  %6 = getelementptr inbounds nuw %"class.ncnn::Mat", ptr %3, i32 0, i32 9
  %7 = load i32, ptr %6, align 8, !tbaa !45
  %8 = sext i32 %7 to i64
  %9 = mul i64 %5, %8
  ret i64 %9
}

; Function Attrs: inlinehint mustprogress nounwind uwtable
define linkonce_odr noundef nonnull align 4 dereferenceable(4) ptr @_ZSt3maxIiERKT_S2_S2_(ptr noundef nonnull align 4 dereferenceable(4) %0, ptr noundef nonnull align 4 dereferenceable(4) %1) #1 comdat {
  %3 = alloca ptr, align 8
  %4 = alloca ptr, align 8
  %5 = alloca ptr, align 8
  store ptr %0, ptr %4, align 8, !tbaa !56
  store ptr %1, ptr %5, align 8, !tbaa !56
  %6 = load ptr, ptr %4, align 8, !tbaa !56
  %7 = load i32, ptr %6, align 4, !tbaa !41
  %8 = load ptr, ptr %5, align 8, !tbaa !56
  %9 = load i32, ptr %8, align 4, !tbaa !41
  %10 = icmp slt i32 %7, %9
  br i1 %10, label %11, label %13

11:                                               ; preds = %2
  %12 = load ptr, ptr %5, align 8, !tbaa !56
  store ptr %12, ptr %3, align 8
  br label %15

13:                                               ; preds = %2
  %14 = load ptr, ptr %4, align 8, !tbaa !56
  store ptr %14, ptr %3, align 8
  br label %15

15:                                               ; preds = %13, %11
  %16 = load ptr, ptr %3, align 8
  ret ptr %16
}

; Function Attrs: mustprogress nounwind uwtable
define linkonce_odr noundef nofpclass(nan inf) float @_ZSt5roundf(float noundef nofpclass(nan inf) %0) #5 comdat {
  %2 = alloca float, align 4
  store float %0, ptr %2, align 4, !tbaa !50
  %3 = load float, ptr %2, align 4, !tbaa !50
  %4 = call fast float @llvm.round.f32(float %3)
  ret float %4
}

; Function Attrs: alwaysinline mustprogress nounwind uwtable
define linkonce_odr hidden noundef ptr @_ZNK4ncnn3MatcvPKT_IfEEv(ptr noundef nonnull align 8 dereferenceable(72) %0) #7 comdat align 2 {
  %2 = alloca ptr, align 8
  store ptr %0, ptr %2, align 8, !tbaa !37
  %3 = load ptr, ptr %2, align 8
  %4 = getelementptr inbounds nuw %"class.ncnn::Mat", ptr %3, i32 0, i32 0
  %5 = load ptr, ptr %4, align 8, !tbaa !55
  ret ptr %5
}

; Function Attrs: alwaysinline mustprogress uwtable
define linkonce_odr hidden noundef zeroext i1 @_ZNK4ncnn3Mat5emptyEv(ptr noundef nonnull align 8 dereferenceable(72) %0) #6 comdat align 2 {
  %2 = alloca ptr, align 8
  store ptr %0, ptr %2, align 8, !tbaa !37
  %3 = load ptr, ptr %2, align 8
  %4 = getelementptr inbounds nuw %"class.ncnn::Mat", ptr %3, i32 0, i32 0
  %5 = load ptr, ptr %4, align 8, !tbaa !55
  %6 = icmp eq ptr %5, null
  br i1 %6, label %10, label %7

7:                                                ; preds = %1
  %8 = call noundef i64 @_ZNK4ncnn3Mat5totalEv(ptr noundef nonnull align 8 dereferenceable(72) %3)
  %9 = icmp eq i64 %8, 0
  br label %10

10:                                               ; preds = %7, %1
  %11 = phi i1 [ true, %1 ], [ %9, %7 ]
  ret i1 %11
}

; Function Attrs: mustprogress nounwind uwtable
define linkonce_odr hidden noundef nonnull align 8 dereferenceable(72) ptr @_ZNSt6vectorIN4ncnn3MatESaIS1_EEixEm(ptr noundef nonnull align 8 dereferenceable(24) %0, i64 noundef %1) #5 comdat align 2 {
  %3 = alloca ptr, align 8
  %4 = alloca i64, align 8
  store ptr %0, ptr %3, align 8, !tbaa !33
  store i64 %1, ptr %4, align 8, !tbaa !44
  %5 = load ptr, ptr %3, align 8
  %6 = getelementptr inbounds nuw %"struct.std::_Vector_base.4", ptr %5, i32 0, i32 0
  %7 = getelementptr inbounds nuw %"struct.std::_Vector_base<ncnn::Mat, std::allocator<ncnn::Mat>>::_Vector_impl_data", ptr %6, i32 0, i32 0
  %8 = load ptr, ptr %7, align 8, !tbaa !54
  %9 = load i64, ptr %4, align 8, !tbaa !44
  %10 = getelementptr inbounds nuw %"class.ncnn::Mat", ptr %8, i64 %9
  ret ptr %10
}

; Function Attrs: mustprogress nounwind uwtable
define linkonce_odr hidden noundef nonnull align 8 dereferenceable(72) ptr @_ZNKSt6vectorIN4ncnn3MatESaIS1_EEixEm(ptr noundef nonnull align 8 dereferenceable(24) %0, i64 noundef %1) #5 comdat align 2 {
  %3 = alloca ptr, align 8
  %4 = alloca i64, align 8
  store ptr %0, ptr %3, align 8, !tbaa !33
  store i64 %1, ptr %4, align 8, !tbaa !44
  %5 = load ptr, ptr %3, align 8
  %6 = getelementptr inbounds nuw %"struct.std::_Vector_base.4", ptr %5, i32 0, i32 0
  %7 = getelementptr inbounds nuw %"struct.std::_Vector_base<ncnn::Mat, std::allocator<ncnn::Mat>>::_Vector_impl_data", ptr %6, i32 0, i32 0
  %8 = load ptr, ptr %7, align 8, !tbaa !54
  %9 = load i64, ptr %4, align 8, !tbaa !44
  %10 = getelementptr inbounds nuw %"class.ncnn::Mat", ptr %8, i64 %9
  ret ptr %10
}

; Function Attrs: mustprogress uwtable
define hidden noundef i32 @_ZNK4ncnn10ROIPooling7forwardERKSt6vectorINS_3MatESaIS2_EERS4_RKNS_6OptionE(ptr noundef nonnull align 8 dereferenceable(220) %0, ptr noundef nonnull align 8 dereferenceable(24) %1, ptr noundef nonnull align 8 dereferenceable(24) %2, ptr noundef nonnull align 8 dereferenceable(64) %3) unnamed_addr #2 align 2 {
  %5 = alloca i32, align 4
  %6 = alloca ptr, align 8
  %7 = alloca ptr, align 8
  %8 = alloca ptr, align 8
  %9 = alloca ptr, align 8
  %10 = alloca ptr, align 8
  %11 = alloca i32, align 4
  %12 = alloca i32, align 4
  %13 = alloca i64, align 8
  %14 = alloca i32, align 4
  %15 = alloca ptr, align 8
  %16 = alloca ptr, align 8
  %17 = alloca i32, align 4
  %18 = alloca ptr, align 8
  %19 = alloca i32, align 4
  %20 = alloca i32, align 4
  %21 = alloca i32, align 4
  %22 = alloca i32, align 4
  %23 = alloca i32, align 4
  %24 = alloca i32, align 4
  %25 = alloca i32, align 4
  %26 = alloca i32, align 4
  %27 = alloca i32, align 4
  %28 = alloca i32, align 4
  %29 = alloca float, align 4
  %30 = alloca float, align 4
  %31 = call i32 @__kmpc_global_thread_num(ptr @2)
  store ptr %0, ptr %6, align 8, !tbaa !4
  store ptr %1, ptr %7, align 8, !tbaa !33
  store ptr %2, ptr %8, align 8, !tbaa !33
  store ptr %3, ptr %9, align 8, !tbaa !35
  %32 = load ptr, ptr %6, align 8
  call void @llvm.lifetime.start.p0(i64 8, ptr %10) #9
  %33 = load ptr, ptr %7, align 8, !tbaa !33
  %34 = call noundef nonnull align 8 dereferenceable(72) ptr @_ZNKSt6vectorIN4ncnn3MatESaIS1_EEixEm(ptr noundef nonnull align 8 dereferenceable(24) %33, i64 noundef 0) #9
  store ptr %34, ptr %10, align 8, !tbaa !37
  call void @llvm.lifetime.start.p0(i64 4, ptr %11) #9
  %35 = load ptr, ptr %10, align 8, !tbaa !37
  %36 = getelementptr inbounds nuw %"class.ncnn::Mat", ptr %35, i32 0, i32 6
  %37 = load i32, ptr %36, align 4, !tbaa !38
  store i32 %37, ptr %11, align 4, !tbaa !41
  call void @llvm.lifetime.start.p0(i64 4, ptr %12) #9
  %38 = load ptr, ptr %10, align 8, !tbaa !37
  %39 = getelementptr inbounds nuw %"class.ncnn::Mat", ptr %38, i32 0, i32 7
  %40 = load i32, ptr %39, align 8, !tbaa !42
  store i32 %40, ptr %12, align 4, !tbaa !41
  call void @llvm.lifetime.start.p0(i64 8, ptr %13) #9
  %41 = load ptr, ptr %10, align 8, !tbaa !37
  %42 = getelementptr inbounds nuw %"class.ncnn::Mat", ptr %41, i32 0, i32 2
  %43 = load i64, ptr %42, align 8, !tbaa !43
  store i64 %43, ptr %13, align 8, !tbaa !44
  call void @llvm.lifetime.start.p0(i64 4, ptr %14) #9
  %44 = load ptr, ptr %10, align 8, !tbaa !37
  %45 = getelementptr inbounds nuw %"class.ncnn::Mat", ptr %44, i32 0, i32 9
  %46 = load i32, ptr %45, align 8, !tbaa !45
  store i32 %46, ptr %14, align 4, !tbaa !41
  call void @llvm.lifetime.start.p0(i64 8, ptr %15) #9
  %47 = load ptr, ptr %7, align 8, !tbaa !33
  %48 = call noundef nonnull align 8 dereferenceable(72) ptr @_ZNKSt6vectorIN4ncnn3MatESaIS1_EEixEm(ptr noundef nonnull align 8 dereferenceable(24) %47, i64 noundef 1) #9
  store ptr %48, ptr %15, align 8, !tbaa !37
  call void @llvm.lifetime.start.p0(i64 8, ptr %16) #9
  %49 = load ptr, ptr %8, align 8, !tbaa !33
  %50 = call noundef nonnull align 8 dereferenceable(72) ptr @_ZNSt6vectorIN4ncnn3MatESaIS1_EEixEm(ptr noundef nonnull align 8 dereferenceable(24) %49, i64 noundef 0) #9
  store ptr %50, ptr %16, align 8, !tbaa !37
  %51 = load ptr, ptr %16, align 8, !tbaa !37
  %52 = getelementptr inbounds nuw %"class.ncnn::ROIPooling", ptr %32, i32 0, i32 1
  %53 = load i32, ptr %52, align 8, !tbaa !11
  %54 = getelementptr inbounds nuw %"class.ncnn::ROIPooling", ptr %32, i32 0, i32 2
  %55 = load i32, ptr %54, align 4, !tbaa !31
  %56 = load i32, ptr %14, align 4, !tbaa !41
  %57 = load i64, ptr %13, align 8, !tbaa !44
  %58 = load ptr, ptr %9, align 8, !tbaa !35
  %59 = getelementptr inbounds nuw %"class.ncnn::Option", ptr %58, i32 0, i32 2
  %60 = load ptr, ptr %59, align 8, !tbaa !46
  call void @_ZN4ncnn3Mat6createEiiimPNS_9AllocatorE(ptr noundef nonnull align 8 dereferenceable(72) %51, i32 noundef %53, i32 noundef %55, i32 noundef %56, i64 noundef %57, ptr noundef %60)
  %61 = load ptr, ptr %16, align 8, !tbaa !37
  %62 = call noundef zeroext i1 @_ZNK4ncnn3Mat5emptyEv(ptr noundef nonnull align 8 dereferenceable(72) %61)
  br i1 %62, label %63, label %64

63:                                               ; preds = %4
  store i32 -100, ptr %5, align 4
  store i32 1, ptr %17, align 4
  br label %128

64:                                               ; preds = %4
  call void @llvm.lifetime.start.p0(i64 8, ptr %18) #9
  %65 = load ptr, ptr %15, align 8, !tbaa !37
  %66 = call noundef ptr @_ZNK4ncnn3MatcvPKT_IfEEv(ptr noundef nonnull align 8 dereferenceable(72) %65)
  store ptr %66, ptr %18, align 8, !tbaa !48
  call void @llvm.lifetime.start.p0(i64 4, ptr %19) #9
  %67 = load ptr, ptr %18, align 8, !tbaa !48
  %68 = getelementptr inbounds float, ptr %67, i64 0
  %69 = load float, ptr %68, align 4, !tbaa !50
  %70 = getelementptr inbounds nuw %"class.ncnn::ROIPooling", ptr %32, i32 0, i32 3
  %71 = load float, ptr %70, align 8, !tbaa !32
  %72 = fmul fast float %69, %71
  %73 = call fast noundef nofpclass(nan inf) float @_ZSt5roundf(float noundef nofpclass(nan inf) %72)
  %74 = fptosi float %73 to i32
  store i32 %74, ptr %19, align 4, !tbaa !41
  call void @llvm.lifetime.start.p0(i64 4, ptr %20) #9
  %75 = load ptr, ptr %18, align 8, !tbaa !48
  %76 = getelementptr inbounds float, ptr %75, i64 1
  %77 = load float, ptr %76, align 4, !tbaa !50
  %78 = getelementptr inbounds nuw %"class.ncnn::ROIPooling", ptr %32, i32 0, i32 3
  %79 = load float, ptr %78, align 8, !tbaa !32
  %80 = fmul fast float %77, %79
  %81 = call fast noundef nofpclass(nan inf) float @_ZSt5roundf(float noundef nofpclass(nan inf) %80)
  %82 = fptosi float %81 to i32
  store i32 %82, ptr %20, align 4, !tbaa !41
  call void @llvm.lifetime.start.p0(i64 4, ptr %21) #9
  %83 = load ptr, ptr %18, align 8, !tbaa !48
  %84 = getelementptr inbounds float, ptr %83, i64 2
  %85 = load float, ptr %84, align 4, !tbaa !50
  %86 = getelementptr inbounds nuw %"class.ncnn::ROIPooling", ptr %32, i32 0, i32 3
  %87 = load float, ptr %86, align 8, !tbaa !32
  %88 = fmul fast float %85, %87
  %89 = call fast noundef nofpclass(nan inf) float @_ZSt5roundf(float noundef nofpclass(nan inf) %88)
  %90 = fptosi float %89 to i32
  store i32 %90, ptr %21, align 4, !tbaa !41
  call void @llvm.lifetime.start.p0(i64 4, ptr %22) #9
  %91 = load ptr, ptr %18, align 8, !tbaa !48
  %92 = getelementptr inbounds float, ptr %91, i64 3
  %93 = load float, ptr %92, align 4, !tbaa !50
  %94 = getelementptr inbounds nuw %"class.ncnn::ROIPooling", ptr %32, i32 0, i32 3
  %95 = load float, ptr %94, align 8, !tbaa !32
  %96 = fmul fast float %93, %95
  %97 = call fast noundef nofpclass(nan inf) float @_ZSt5roundf(float noundef nofpclass(nan inf) %96)
  %98 = fptosi float %97 to i32
  store i32 %98, ptr %22, align 4, !tbaa !41
  call void @llvm.lifetime.start.p0(i64 4, ptr %23) #9
  call void @llvm.lifetime.start.p0(i64 4, ptr %24) #9
  %99 = load i32, ptr %21, align 4, !tbaa !41
  %100 = load i32, ptr %19, align 4, !tbaa !41
  %101 = sub nsw i32 %99, %100
  %102 = add nsw i32 %101, 1
  store i32 %102, ptr %24, align 4, !tbaa !41
  call void @llvm.lifetime.start.p0(i64 4, ptr %25) #9
  store i32 1, ptr %25, align 4, !tbaa !41
  %103 = call noundef nonnull align 4 dereferenceable(4) ptr @_ZSt3maxIiERKT_S2_S2_(ptr noundef nonnull align 4 dereferenceable(4) %24, ptr noundef nonnull align 4 dereferenceable(4) %25)
  %104 = load i32, ptr %103, align 4, !tbaa !41
  call void @llvm.lifetime.end.p0(i64 4, ptr %25) #9
  call void @llvm.lifetime.end.p0(i64 4, ptr %24) #9
  store i32 %104, ptr %23, align 4, !tbaa !41
  call void @llvm.lifetime.start.p0(i64 4, ptr %26) #9
  call void @llvm.lifetime.start.p0(i64 4, ptr %27) #9
  %105 = load i32, ptr %22, align 4, !tbaa !41
  %106 = load i32, ptr %20, align 4, !tbaa !41
  %107 = sub nsw i32 %105, %106
  %108 = add nsw i32 %107, 1
  store i32 %108, ptr %27, align 4, !tbaa !41
  call void @llvm.lifetime.start.p0(i64 4, ptr %28) #9
  store i32 1, ptr %28, align 4, !tbaa !41
  %109 = call noundef nonnull align 4 dereferenceable(4) ptr @_ZSt3maxIiERKT_S2_S2_(ptr noundef nonnull align 4 dereferenceable(4) %27, ptr noundef nonnull align 4 dereferenceable(4) %28)
  %110 = load i32, ptr %109, align 4, !tbaa !41
  call void @llvm.lifetime.end.p0(i64 4, ptr %28) #9
  call void @llvm.lifetime.end.p0(i64 4, ptr %27) #9
  store i32 %110, ptr %26, align 4, !tbaa !41
  call void @llvm.lifetime.start.p0(i64 4, ptr %29) #9
  %111 = load i32, ptr %23, align 4, !tbaa !41
  %112 = sitofp i32 %111 to float
  %113 = getelementptr inbounds nuw %"class.ncnn::ROIPooling", ptr %32, i32 0, i32 1
  %114 = load i32, ptr %113, align 8, !tbaa !11
  %115 = sitofp i32 %114 to float
  %116 = fdiv fast float %112, %115
  store float %116, ptr %29, align 4, !tbaa !50
  call void @llvm.lifetime.start.p0(i64 4, ptr %30) #9
  %117 = load i32, ptr %26, align 4, !tbaa !41
  %118 = sitofp i32 %117 to float
  %119 = getelementptr inbounds nuw %"class.ncnn::ROIPooling", ptr %32, i32 0, i32 2
  %120 = load i32, ptr %119, align 4, !tbaa !31
  %121 = sitofp i32 %120 to float
  %122 = fdiv fast float %118, %121
  store float %122, ptr %30, align 4, !tbaa !50
  %123 = load ptr, ptr %9, align 8, !tbaa !35
  %124 = getelementptr inbounds nuw %"class.ncnn::Option", ptr %123, i32 0, i32 1
  %125 = load i32, ptr %124, align 4, !tbaa !51
  call void @__kmpc_push_num_threads(ptr @2, i32 %31, i32 %125)
  %126 = load ptr, ptr %10, align 8, !tbaa !37
  %127 = load ptr, ptr %16, align 8, !tbaa !37
  call void (ptr, i32, ptr, ...) @__kmpc_fork_call(ptr @2, i32 10, ptr @_ZNK4ncnn10ROIPooling7forwardERKSt6vectorINS_3MatESaIS2_EERS4_RKNS_6OptionE.omp_outlined, ptr %14, ptr %126, ptr %127, ptr %32, ptr %20, ptr %30, ptr %19, ptr %29, ptr %12, ptr %11)
  store i32 0, ptr %5, align 4
  store i32 1, ptr %17, align 4
  call void @llvm.lifetime.end.p0(i64 4, ptr %30) #9
  call void @llvm.lifetime.end.p0(i64 4, ptr %29) #9
  call void @llvm.lifetime.end.p0(i64 4, ptr %26) #9
  call void @llvm.lifetime.end.p0(i64 4, ptr %23) #9
  call void @llvm.lifetime.end.p0(i64 4, ptr %22) #9
  call void @llvm.lifetime.end.p0(i64 4, ptr %21) #9
  call void @llvm.lifetime.end.p0(i64 4, ptr %20) #9
  call void @llvm.lifetime.end.p0(i64 4, ptr %19) #9
  call void @llvm.lifetime.end.p0(i64 8, ptr %18) #9
  br label %128

128:                                              ; preds = %64, %63
  call void @llvm.lifetime.end.p0(i64 8, ptr %16) #9
  call void @llvm.lifetime.end.p0(i64 8, ptr %15) #9
  call void @llvm.lifetime.end.p0(i64 4, ptr %14) #9
  call void @llvm.lifetime.end.p0(i64 8, ptr %13) #9
  call void @llvm.lifetime.end.p0(i64 4, ptr %12) #9
  call void @llvm.lifetime.end.p0(i64 4, ptr %11) #9
  call void @llvm.lifetime.end.p0(i64 8, ptr %10) #9
  %129 = load i32, ptr %5, align 4
  ret i32 %129
}