; Function Attrs: mustprogress uwtable
define hidden noundef range(i32 -100, 1) i32 @_ZNK4ncnn10ROIPooling7forwardERKSt6vectorINS_3MatESaIS2_EERS4_RKNS_6OptionE(ptr noundef nonnull align 8 dereferenceable(220) %0, ptr noundef nonnull readonly align 8 captures(none) dereferenceable(24) %1, ptr noundef nonnull readonly align 8 captures(none) dereferenceable(24) %2, ptr noundef nonnull readonly align 8 captures(none) dereferenceable(64) %3) unnamed_addr #2 align 2 {
  %5 = alloca i32, align 4
  %6 = alloca i32, align 4
  %7 = alloca i32, align 4
  %8 = alloca i32, align 4
  %9 = alloca i32, align 4
  %10 = alloca float, align 4
  %11 = alloca float, align 4
  %12 = tail call i32 @__kmpc_global_thread_num(ptr nonnull @2)
  %13 = load ptr, ptr %1, align 8, !tbaa !29
  call void @llvm.lifetime.start.p0(i64 4, ptr nonnull %5) #6
  %14 = getelementptr inbounds nuw i8, ptr %13, i64 44
  %15 = load i32, ptr %14, align 4, !tbaa !30
  store i32 %15, ptr %5, align 4, !tbaa !33
  call void @llvm.lifetime.start.p0(i64 4, ptr nonnull %6) #6
  %16 = getelementptr inbounds nuw i8, ptr %13, i64 48
  %17 = load i32, ptr %16, align 8, !tbaa !34
  store i32 %17, ptr %6, align 4, !tbaa !33
  %18 = getelementptr inbounds nuw i8, ptr %13, i64 16
  %19 = load i64, ptr %18, align 8, !tbaa !35
  call void @llvm.lifetime.start.p0(i64 4, ptr nonnull %7) #6
  %20 = getelementptr inbounds nuw i8, ptr %13, i64 56
  %21 = load i32, ptr %20, align 8, !tbaa !36
  store i32 %21, ptr %7, align 4, !tbaa !33
  %22 = getelementptr inbounds nuw i8, ptr %13, i64 72
  %23 = load ptr, ptr %2, align 8, !tbaa !29
  %24 = getelementptr inbounds nuw i8, ptr %0, i64 208
  %25 = load i32, ptr %24, align 8, !tbaa !4
  %26 = getelementptr inbounds nuw i8, ptr %0, i64 212
  %27 = load i32, ptr %26, align 4, !tbaa !27
  %28 = getelementptr inbounds nuw i8, ptr %3, i64 8
  %29 = load ptr, ptr %28, align 8, !tbaa !37
  tail call void @_ZN4ncnn3Mat6createEiiimPNS_9AllocatorE(ptr noundef nonnull align 8 dereferenceable(72) %23, i32 noundef %25, i32 noundef %27, i32 noundef %21, i64 noundef %19, ptr noundef %29)
  %30 = load ptr, ptr %23, align 8, !tbaa !39
  %31 = icmp eq ptr %30, null
  br i1 %31, label %_ZNK4ncnn3Mat5emptyEv.exit.thread, label %_ZNK4ncnn3Mat5emptyEv.exit

_ZNK4ncnn3Mat5emptyEv.exit:                       ; preds = %4
  %32 = getelementptr inbounds nuw i8, ptr %23, i64 64
  %33 = load i64, ptr %32, align 8, !tbaa !40
  %34 = getelementptr inbounds nuw i8, ptr %23, i64 56
  %35 = load i32, ptr %34, align 8, !tbaa !36
  %36 = sext i32 %35 to i64
  %37 = mul i64 %33, %36
  %38 = icmp eq i64 %37, 0
  br i1 %38, label %_ZNK4ncnn3Mat5emptyEv.exit.thread, label %39

39:                                               ; preds = %_ZNK4ncnn3Mat5emptyEv.exit
  %40 = load ptr, ptr %22, align 8, !tbaa !39
  call void @llvm.lifetime.start.p0(i64 4, ptr nonnull %8) #6
  %41 = load float, ptr %40, align 4, !tbaa !41
  %42 = getelementptr inbounds nuw i8, ptr %0, i64 216
  %43 = load float, ptr %42, align 8, !tbaa !28
  %44 = fmul fast float %43, %41
  %45 = tail call fast noundef float @llvm.round.f32(float %44)
  %46 = fptosi float %45 to i32
  store i32 %46, ptr %8, align 4, !tbaa !33
  call void @llvm.lifetime.start.p0(i64 4, ptr nonnull %9) #6
  %47 = getelementptr inbounds nuw i8, ptr %40, i64 4
  %48 = load float, ptr %47, align 4, !tbaa !41
  %49 = fmul fast float %48, %43
  %50 = tail call fast noundef float @llvm.round.f32(float %49)
  %51 = fptosi float %50 to i32
  store i32 %51, ptr %9, align 4, !tbaa !33
  %52 = getelementptr inbounds nuw i8, ptr %40, i64 8
  %53 = load float, ptr %52, align 4, !tbaa !41
  %54 = fmul fast float %53, %43
  %55 = tail call fast noundef float @llvm.round.f32(float %54)
  %56 = fptosi float %55 to i32
  %57 = getelementptr inbounds nuw i8, ptr %40, i64 12
  %58 = load float, ptr %57, align 4, !tbaa !41
  %59 = fmul fast float %58, %43
  %60 = tail call fast noundef float @llvm.round.f32(float %59)
  %61 = fptosi float %60 to i32
  %62 = sub nsw i32 %56, %46
  %63 = tail call i32 @llvm.smax.i32(i32 %62, i32 0)
  %.sroa.speculated28 = add nuw nsw i32 %63, 1
  %64 = sub nsw i32 %61, %51
  %65 = tail call i32 @llvm.smax.i32(i32 %64, i32 0)
  %.sroa.speculated = add nuw nsw i32 %65, 1
  call void @llvm.lifetime.start.p0(i64 4, ptr nonnull %10) #6
  %66 = uitofp nneg i32 %.sroa.speculated28 to float
  %67 = load i32, ptr %24, align 8, !tbaa !4
  %68 = sitofp i32 %67 to float
  %69 = fdiv fast float %66, %68
  store float %69, ptr %10, align 4, !tbaa !41
  call void @llvm.lifetime.start.p0(i64 4, ptr nonnull %11) #6
  %70 = uitofp nneg i32 %.sroa.speculated to float
  %71 = load i32, ptr %26, align 4, !tbaa !27
  %72 = sitofp i32 %71 to float
  %73 = fdiv fast float %70, %72
  store float %73, ptr %11, align 4, !tbaa !41
  %74 = getelementptr inbounds nuw i8, ptr %3, i64 4
  %75 = load i32, ptr %74, align 4, !tbaa !42
  tail call void @__kmpc_push_num_threads(ptr nonnull @2, i32 %12, i32 %75)
  call void (ptr, i32, ptr, ...) @__kmpc_fork_call(ptr nonnull @2, i32 10, ptr nonnull @_ZNK4ncnn10ROIPooling7forwardERKSt6vectorINS_3MatESaIS2_EERS4_RKNS_6OptionE.omp_outlined, ptr nonnull %7, ptr nonnull %13, ptr nonnull %23, ptr nonnull %0, ptr nonnull %9, ptr nonnull %11, ptr nonnull %8, ptr nonnull %10, ptr nonnull %6, ptr nonnull %5)
  call void @llvm.lifetime.end.p0(i64 4, ptr nonnull %11) #6
  call void @llvm.lifetime.end.p0(i64 4, ptr nonnull %10) #6
  call void @llvm.lifetime.end.p0(i64 4, ptr nonnull %9) #6
  call void @llvm.lifetime.end.p0(i64 4, ptr nonnull %8) #6
  br label %_ZNK4ncnn3Mat5emptyEv.exit.thread

_ZNK4ncnn3Mat5emptyEv.exit.thread:                ; preds = %4, %_ZNK4ncnn3Mat5emptyEv.exit, %39
  %.0 = phi i32 [ 0, %39 ], [ -100, %_ZNK4ncnn3Mat5emptyEv.exit ], [ -100, %4 ]
  call void @llvm.lifetime.end.p0(i64 4, ptr nonnull %7) #6
  call void @llvm.lifetime.end.p0(i64 4, ptr nonnull %6) #6
  call void @llvm.lifetime.end.p0(i64 4, ptr nonnull %5) #6
  ret i32 %.0
}